target datalayout = "e-m:e-p270:32:32-p271:32:32-p272:64:64-i64:64-i128:128-f80:128-n8:16:32:64-S128"
target triple = "x86_64-pc-linux-gnu"

%struct._object = type { %union.anon, ptr }
%union.anon = type { i64 }
%struct.PyStructObject = type { %struct._object, i64, i64, ptr, ptr, ptr }
%struct.anon = type { i32, i32 }

@_Py_NoneStruct = external global %struct._object, align 8

; Function Attrs: alwaysinline nounwind uwtable
define internal void @Py_INCREF(ptr noundef %0) #4 {
  %2 = alloca ptr, align 8
  %3 = alloca i32, align 4
  %4 = alloca i32, align 4
  store ptr %0, ptr %2, align 8, !tbaa !3
  call void @llvm.lifetime.start.p0(i64 4, ptr %3) #8
  %5 = load ptr, ptr %2, align 8, !tbaa !3
  %6 = getelementptr inbounds nuw %struct._object, ptr %5, i32 0, i32 0
  %7 = getelementptr inbounds nuw %struct.anon, ptr %6, i32 0, i32 0
  %8 = load i32, ptr %7, align 8, !tbaa !32
  store i32 %8, ptr %3, align 4, !tbaa !11
  %9 = load i32, ptr %3, align 4, !tbaa !11
  %10 = icmp slt i32 %9, 0
  br i1 %10, label %11, label %12

11:                                               ; preds = %1
  store i32 1, ptr %4, align 4
  br label %18

12:                                               ; preds = %1
  %13 = load i32, ptr %3, align 4, !tbaa !11
  %14 = add i32 %13, 1
  %15 = load ptr, ptr %2, align 8, !tbaa !3
  %16 = getelementptr inbounds nuw %struct._object, ptr %15, i32 0, i32 0
  %17 = getelementptr inbounds nuw %struct.anon, ptr %16, i32 0, i32 0
  store i32 %14, ptr %17, align 8, !tbaa !32
  store i32 0, ptr %4, align 4
  br label %18

18:                                               ; preds = %12, %11
  call void @llvm.lifetime.end.p0(i64 4, ptr %3) #8
  %19 = load i32, ptr %4, align 4
  switch i32 %19, label %21 [
    i32 0, label %20
    i32 1, label %20
  ]

20:                                               ; preds = %18, %18
  ret void

21:                                               ; preds = %18
  unreachable
}

; Function Attrs: inlinehint nounwind uwtable
define internal ptr @_Py_NewRef(ptr noundef %0) #2 {
  %2 = alloca ptr, align 8
  store ptr %0, ptr %2, align 8, !tbaa !3
  %3 = load ptr, ptr %2, align 8, !tbaa !3
  call void @Py_INCREF(ptr noundef %3)
  %4 = load ptr, ptr %2, align 8, !tbaa !3
  ret ptr %4
}

; Function Attrs: nounwind uwtable
define internal ptr @s_new(ptr noundef %0, ptr noundef %1, ptr noundef %2) #0 {
  %4 = alloca ptr, align 8
  %5 = alloca ptr, align 8
  %6 = alloca ptr, align 8
  %7 = alloca ptr, align 8
  %8 = alloca ptr, align 8
  %9 = alloca ptr, align 8
  store ptr %0, ptr %4, align 8, !tbaa !59
  store ptr %1, ptr %5, align 8, !tbaa !3
  store ptr %2, ptr %6, align 8, !tbaa !3
  call void @llvm.lifetime.start.p0(i64 8, ptr %7) #8
  call void @llvm.lifetime.start.p0(i64 8, ptr %8) #8
  %10 = load ptr, ptr %4, align 8, !tbaa !59
  %11 = call ptr @PyType_GetSlot(ptr noundef %10, i32 noundef 47)
  store ptr %11, ptr %8, align 8, !tbaa !8
  %12 = load ptr, ptr %8, align 8, !tbaa !8
  %13 = load ptr, ptr %4, align 8, !tbaa !59
  %14 = call ptr %12(ptr noundef %13, i64 noundef 0)
  store ptr %14, ptr %7, align 8, !tbaa !3
  %15 = load ptr, ptr %7, align 8, !tbaa !3
  %16 = icmp ne ptr %15, null
  br i1 %16, label %17, label %28

17:                                               ; preds = %3
  call void @llvm.lifetime.start.p0(i64 8, ptr %9) #8
  %18 = load ptr, ptr %7, align 8, !tbaa !3
  store ptr %18, ptr %9, align 8, !tbaa !8
  %19 = call ptr @_Py_NewRef(ptr noundef @_Py_NoneStruct)
  %20 = load ptr, ptr %9, align 8, !tbaa !8
  %21 = getelementptr inbounds nuw %struct.PyStructObject, ptr %20, i32 0, i32 4
  store ptr %19, ptr %21, align 8, !tbaa !79
  %22 = load ptr, ptr %9, align 8, !tbaa !8
  %23 = getelementptr inbounds nuw %struct.PyStructObject, ptr %22, i32 0, i32 3
  store ptr null, ptr %23, align 8, !tbaa !44
  %24 = load ptr, ptr %9, align 8, !tbaa !8
  %25 = getelementptr inbounds nuw %struct.PyStructObject, ptr %24, i32 0, i32 1
  store i64 -1, ptr %25, align 8, !tbaa !29
  %26 = load ptr, ptr %9, align 8, !tbaa !8
  %27 = getelementptr inbounds nuw %struct.PyStructObject, ptr %26, i32 0, i32 2
  store i64 -1, ptr %27, align 8, !tbaa !42
  call void @llvm.lifetime.end.p0(i64 8, ptr %9) #8
  br label %28

28:                                               ; preds = %17, %3
  %29 = load ptr, ptr %7, align 8, !tbaa !3
  call void @llvm.lifetime.end.p0(i64 8, ptr %8) #8
  call void @llvm.lifetime.end.p0(i64 8, ptr %7) #8
  ret ptr %29
}