; Function Attrs: nounwind uwtable
define internal ptr @s_new(ptr noundef %0, ptr readnone captures(none) %1, ptr readnone captures(none) %2) #0 {
  %4 = tail call ptr @PyType_GetSlot(ptr noundef %0, i32 noundef 47) #7
  %5 = tail call ptr %4(ptr noundef %0, i64 noundef 0) #7
  %.not = icmp eq ptr %5, null
  br i1 %.not, label %14, label %6

6:                                                ; preds = %3
  %7 = load i32, ptr @_Py_NoneStruct, align 8, !tbaa !18
  %8 = icmp slt i32 %7, 0
  br i1 %8, label %_Py_NewRef.exit, label %9

9:                                                ; preds = %6
  %10 = add nuw i32 %7, 1
  store i32 %10, ptr @_Py_NoneStruct, align 8, !tbaa !18
  br label %_Py_NewRef.exit

_Py_NewRef.exit:                                  ; preds = %6, %9
  %11 = getelementptr inbounds nuw i8, ptr %5, i64 40
  store ptr @_Py_NoneStruct, ptr %11, align 8, !tbaa !71
  %12 = getelementptr inbounds nuw i8, ptr %5, i64 32
  store ptr null, ptr %12, align 8, !tbaa !43
  %13 = getelementptr inbounds nuw i8, ptr %5, i64 16
  tail call void @llvm.memset.p0.i64(ptr noundef nonnull align 8 dereferenceable(16) %13, i8 -1, i64 16, i1 false)
  br label %14

14:                                               ; preds = %_Py_NewRef.exit, %3
  ret ptr %5
}